
build/main.elf:     file format elf32-littleriscv

Contents of section .text:
 80000000 13000000 6f00800b 13000000 13000000  ....o...........
 80000010 13000000 13000000 13000000 13000000  ................
 80000020 13000000 13000000 13000000 13000000  ................
 80000030 13000000 13000000 13000000 13000000  ................
 80000040 6f00000e 00000000 00000000 6f00800a  o...........o...
 80000050 00000000 00000000 00000000 6f008009  ............o...
 80000060 00000000 00000000 00000000 6f00c008  ............o...
 80000070 00000000 00000000 00000000 00000000  ................
 80000080 6f004007 00000000 00000000 00000000  o.@.............
 80000090 13000000 13000000 13000000 13000000  ................
 800000a0 13000000 13000000 13000000 13000000  ................
 800000b0 13000000 13000000 13000000 93028000  ................
 800000c0 73a00230 b7120000 93820280 73a04230  s..0........s.B0
 800000d0 17010100 130101f3 17050000 130585f6  ................
 800000e0 13051500 73105530 13050000 93050000  ....s.U0........
 800000f0 ef00d005 6f000000 130101ff 23261100  ....o.......#&..
 80000100 2322f100 2324e100 ef008025 03278100  #"..#$.....%.'..
 80000110 83274100 8320c100 13010101 73002030  .'A.. ......s. 0
 80000120 130101ff 23261100 2322f100 2324e100  ....#&..#"..#$..
 80000130 03278100 83274100 8320c100 13010101  .'...'A.. ......
 80000140 73002030 130101ff 23261100 2322f100  s. 0....#&..#"..
 80000150 2324e100 03278100 83274100 8320c100  #$...'...'A.. ..
 80000160 13010101 73002010 130101fe 232e1100  ....s. .....#...
 80000170 232c8100 13040102 2326a4fe b7070090  #,......#&......
 80000180 0327c4fe 23ace700 13000000 8320c101  .'..#........ ..
 80000190 03248101 13010102 67800000 130101fe  .$......g.......
 800001a0 232e1100 232c8100 13040102 2326a4fe  #...#,......#&..
 800001b0 13000000 b7070090 83a74701 93f71700  ..........G.....
 800001c0 e38a07fe b7070090 0327c4fe 23a0e700  .........'..#...
 800001d0 13000000 8320c101 03248101 13010102  ..... ...$......
 800001e0 67800000 130101fd 23261102 23248102  g.......#&..#$..
 800001f0 13040103 232ea4fc a30704fe 6f000001  ....#.......o...
 80000200 8347f4fe 13850700 eff05ff9 8327c4fd  .G........_..'..
 80000210 13871700 232ee4fc 83c70700 a307f4fe  ....#...........
 80000220 8347f4fe e39e07fc 13000000 13000000  .G..............
 80000230 8320c102 03248102 13010103 67800000  . ...$......g...
 80000240 130101ff 23261100 23248100 13040101  ....#&..#$......
 80000250 93055000 13051000 ef00000a 93056000  ..P...........`.
 80000260 13052000 ef004009 13051000 ef000002  .. ...@.........
 80000270 13052000 ef008001 13000000 8320c100  .. .......... ..
 80000280 03248100 13010101 67800000 130101fd  .$......g.......
 80000290 23261102 23248102 13040103 232ea4fc  #&..#$......#...
 800002a0 b7270090 2326f4fe 8327c4fd 93d75700  .'..#&...'....W.
 800002b0 93972700 0327c4fe b307f700 2326f4fe  ..'..'......#&..
 800002c0 8327c4fe 83a70700 0327c4fd 1377f701  .'.......'...w..
 800002d0 93061000 3397e600 33e7e700 8327c4fe  ....3...3....'..
 800002e0 23a0e700 13000000 8320c102 03248102  #........ ...$..
 800002f0 13010103 67800000 130101fd 23261102  ....g.......#&..
 80000300 23248102 13040103 232ea4fc 232cb4fc  #$......#...#,..
 80000310 b7070090 2326f4fe 032784fd 93077000  ....#&...'....p.
 80000320 63f6e700 93077000 232cf4fc 8327c4fd  c.....p.#,...'..
 80000330 93972700 0327c4fe b307f700 2326f4fe  ..'..'......#&..
 80000340 8327c4fe 032784fd 23a0e700 13000000  .'...'..#.......
 80000350 8320c102 03248102 13010103 67800000  . ...$......g...
 80000360 130101fe 232e1100 232c8100 13040102  ....#...#,......
 80000370 b7072090 93874700 2326f4fe 8327c4fe  .. ...G.#&...'..
 80000380 83a70700 2324f4fe 8327c4fe 032784fe  ....#$...'...'..
 80000390 23a0e700 13000000 8320c101 03248101  #........ ...$..
 800003a0 13010102 67800000 130101fd 23261102  ....g.......#&..
 800003b0 23248102 13040103 232ea4fc 232604fe  #$......#...#&..
 800003c0 6f008002 0327c4fd 8327c4fe b307f700  o....'...'......
 800003d0 83c70700 13850700 eff05fdc 8327c4fe  .........._..'..
 800003e0 93871700 2326f4fe 0327c4fe 93075000  ....#&...'....P.
 800003f0 e3fae7fc 13000000 13000000 8320c102  ............. ..
 80000400 03248102 13010103 67800000 130101fd  .$......g.......
 80000410 23261102 23248102 13040103 232ea4fc  #&..#$......#...
 80000420 232cb4fc 232ac4fc 2328d4fc 232604fe  #,..#*..#(..#&..
 80000430 232404fe 8327c4fd 032784fd 33c7e702  #$...'...'..3...
 80000440 b3e7e702 2326e4fe 2324f4fe 0327c4fe  ....#&..#$...'..
 80000450 832744fd 631cf700 032784fe 832704fd  .'D.c....'...'..
 80000460 6316f700 93071000 6f008000 93070000  c.......o.......
 80000470 13850700 8320c102 03248102 13010103  ..... ...$......
 80000480 67800000 130101fd 23261102 23248102  g.......#&..#$..
 80000490 13040103 232ea4fc 232cb4fc 232ac4fc  ....#...#,..#*..
 800004a0 2328d4fc 232604fe 232404fe 8327c4fd  #(..#&..#$...'..
 800004b0 032784fd 33d7e702 b3f7e702 2326e4fe  .'..3.......#&..
 800004c0 2324f4fe 0327c4fe 832744fd 631cf700  #$...'...'D.c...
 800004d0 032784fe 832704fd 6316f700 93071000  .'...'..c.......
 800004e0 6f008000 93070000 13850700 8320c102  o............ ..
 800004f0 03248102 13010103 67800000 130101fe  .$......g.......
 80000500 232e1100 232c8100 13040102 2326a4fe  #...#,......#&..
 80000510 2324b4fe 0327c4fe 9307b001 6304f706  #$...'......c...
 80000520 0327c4fe 9307b001 63c4e706 0327c4fe  .'......c....'..
 80000530 9307a001 6302f704 0327c4fe 9307a001  ....c....'......
 80000540 63c8e704 0327c4fe 93070001 630af700  c....'......c...
 80000550 0327c4fe 93071001 630af700 6f004003  .'......c...o.@.
 80000560 832784fe 13880700 6f008002 832784fe  .'......o....'..
 80000570 93880700 6f00c001 832784fe 138d0700  ....o....'......
 80000580 6f000001 832784fe 938d0700 13000000  o....'..........
 80000590 13000000 8320c101 03248101 13010102  ..... ...$......
 800005a0 67800000 130101fd 23261102 23248102  g.......#&..#$..
 800005b0 13040103 232ea4fc 232604fe 0327c4fd  ....#...#&...'..
 800005c0 9307b001 6304f706 0327c4fd 9307b001  ....c....'......
 800005d0 63c4e706 0327c4fd 9307a001 6302f704  c....'......c...
 800005e0 0327c4fd 9307a001 63c8e704 0327c4fd  .'......c....'..
 800005f0 93070001 630af700 0327c4fd 93071001  ....c....'......
 80000600 630af700 6f004003 93070800 2326f4fe  c...o.@.....#&..
 80000610 6f008002 93870800 2326f4fe 6f00c001  o.......#&..o...
 80000620 93070d00 2326f4fe 6f000001 93870d00  ....#&..o.......
 80000630 2326f4fe 13000000 8327c4fe 13850700  #&.......'......
 80000640 8320c102 03248102 13010103 67800000  . ...$......g...
 80000650 130101fd 23261102 23248102 13040103  ....#&..#$......
 80000660 232ea4fc 232cb4fc 232ac4fc 832584fd  #...#,..#*...%..
 80000670 0325c4fd eff09fe8 0325c4fd eff09ff2  .%.......%......
 80000680 2326a4fe 0327c4fe 832744fd b307f740  #&...'...'D....@
 80000690 93b71700 93f7f70f 13850700 8320c102  ............. ..
 800006a0 03248102 13010103 67800000 130101fd  .$......g.......
 800006b0 23261102 23248102 13040103 232ea4fc  #&..#$......#...
 800006c0 232cb4fc 232ac4fc 8327c4fd 2324f4fe  #,..#*...'..#$..
 800006d0 232604fe 832784fd 130784fe af27f720  #&...'.......'. 
 800006e0 2326f4fe 832784fe 032744fd b307f740  #&...'...'D....@
 800006f0 93b71700 93f7f70f 13850700 8320c102  ............. ..
 80000700 03248102 13010103 67800000 130101fd  .$......g.......
 80000710 23261102 23248102 13040103 232ea4fc  #&..#$......#...
 80000720 232cb4fc 232ac4fc 8327c4fd 2324f4fe  #,..#*...'..#$..
 80000730 232604fe 832784fd 130784fe af27f760  #&...'.......'.`
 80000740 2326f4fe 832784fe 032744fd b307f740  #&...'...'D....@
 80000750 93b71700 93f7f70f 13850700 8320c102  ............. ..
 80000760 03248102 13010103 67800000 130101fd  .$......g.......
 80000770 23261102 23248102 13040103 232ea4fc  #&..#$......#...
 80000780 232cb4fc 232ac4fc 8327c4fd 2324f4fe  #,..#*...'..#$..
 80000790 232604fe 832784fd 130784fe af27f740  #&...'.......'.@
 800007a0 2326f4fe 832784fe 032744fd b307f740  #&...'...'D....@
 800007b0 93b71700 93f7f70f 13850700 8320c102  ............. ..
 800007c0 03248102 13010103 67800000 130101fd  .$......g.......
 800007d0 23261102 23248102 13040103 232ea4fc  #&..#$......#...
 800007e0 232cb4fc 232ac4fc 8327c4fd 2324f4fe  #,..#*...'..#$..
 800007f0 232604fe 832784fd 130784fe af27f7a0  #&...'.......'..
 80000800 2326f4fe 832784fe 032744fd b307f740  #&...'...'D....@
 80000810 93b71700 93f7f70f 13850700 8320c102  ............. ..
 80000820 03248102 13010103 67800000 130101fd  .$......g.......
 80000830 23261102 23248102 13040103 232ea4fc  #&..#$......#...
 80000840 232cb4fc 232ac4fc 8327c4fd 2324f4fe  #,..#*...'..#$..
 80000850 232604fe 832784fd 130784fe af27f780  #&...'.......'..
 80000860 2326f4fe 832784fe 032744fd b307f740  #&...'...'D....@
 80000870 93b71700 93f7f70f 13850700 8320c102  ............. ..
 80000880 03248102 13010103 67800000 130101fd  .$......g.......
 80000890 23261102 23248102 13040103 232ea4fc  #&..#$......#...
 800008a0 232cb4fc 232ac4fc 8327c4fd 2324f4fe  #,..#*...'..#$..
 800008b0 232604fe 832784fd 130784fe af27f7e0  #&...'.......'..
 800008c0 2326f4fe 832784fe 032744fd b307f740  #&...'...'D....@
 800008d0 93b71700 93f7f70f 13850700 8320c102  ............. ..
 800008e0 03248102 13010103 67800000 130101fd  .$......g.......
 800008f0 23261102 23248102 13040103 232ea4fc  #&..#$......#...
 80000900 232cb4fc 232ac4fc 8327c4fd 2324f4fe  #,..#*...'..#$..
 80000910 232604fe 832784fd 130784fe af27f7c0  #&...'.......'..
 80000920 2326f4fe 832784fe 032744fd b307f740  #&...'...'D....@
 80000930 93b71700 93f7f70f 13850700 8320c102  ............. ..
 80000940 03248102 13010103 67800000 130101fe  .$......g.......
 80000950 232e1100 232c8100 13040102 13050001  #...#,..........
 80000960 eff09f80 232604fe 9302b007 93870200  ....#&..........
 80000970 2326f4fe 0327c4fe 9307b007 6318f700  #&...'......c...
 80000980 b7170080 938747ef 6f00c000 b7170080  ......G.o.......
 80000990 9387c7ef 13850700 eff01fa1 93062000  .............. .
 800009a0 13068000 93055000 1305a002 eff01fa6  ......P.........
 800009b0 93070500 63880700 b7170080 938747ef  ....c.........G.
 800009c0 6f00c000 b7170080 9387c7ef 13850700  o...............
 800009d0 eff09f9d 93067000 13066000 93058000  ......p...`.....
 800009e0 13057003 eff09fa2 93070500 63880700  ..p.........c...
 800009f0 b7170080 938747ef 6f00c000 b7170080  ......G.o.......
 80000a00 9387c7ef 13850700 eff01f9a 93063006  ..............0.
 80000a10 13060000 93054006 13053006 eff01f9f  ......@...0.....
 80000a20 93070500 63880700 b7170080 938747ef  ....c.........G.
 80000a30 6f00c000 b7170080 9387c7ef 13850700  o...............
 80000a40 eff09f96 93064000 13061001 93057000  ......@.......p.
 80000a50 1305b007 eff09f9b 93070500 63880700  ............c...
 80000a60 b7170080 938747ef 6f00c000 b7170080  ......G.o.......
 80000a70 9387c7ef 13850700 eff01f93 9306e0ff  ................
 80000a80 130680ff 93055000 130560fd eff01f98  ......P...`.....
 80000a90 93070500 63880700 b7170080 938747ef  ....c.........G.
 80000aa0 6f00c000 b7170080 9387c7ef 13850700  o...............
 80000ab0 eff09f8f 93062000 130680ff 9305b0ff  ...... .........
 80000ac0 1305a002 eff09f94 93070500 63880700  ............c...
 80000ad0 b7170080 938747ef 6f00c000 b7170080  ......G.o.......
 80000ae0 9387c7ef 13850700 eff01f8c 9306e0ff  ................
 80000af0 13068000 9305b0ff 130560fd eff01f91  ..........`.....
 80000b00 93070500 63880700 b7170080 938747ef  ....c.........G.
 80000b10 6f00c000 b7170080 9387c7ef 13850700  o...............
 80000b20 eff09f88 93062000 13068000 93055000  ...... .......P.
 80000b30 1305a002 eff01f95 93070500 63880700  ............c...
 80000b40 b7170080 938747ef 6f00c000 b7170080  ......G.o.......
 80000b50 9387c7ef 13850700 eff01f85 93067000  ..............p.
 80000b60 13066000 93058000 13057003 eff09f91  ..`.......p.....
 80000b70 93070500 63880700 b7170080 938747ef  ....c.........G.
 80000b80 6f00c000 b7170080 9387c7ef 13850700  o...............
 80000b90 eff09f81 93063006 13060000 93054006  ......0.......@.
 80000ba0 13053006 eff01f8e 93070500 63880700  ..0.........c...
 80000bb0 b7170080 938747ef 6f00c000 b7170080  ......G.o.......
 80000bc0 9387c7ef 13850700 eff00ffe 93063000  ..............0.
 80000bd0 b7373333 13863733 93055000 1305e0ff  .733..73..P.....
 80000be0 eff05f8a 93070500 63880700 b7170080  .._.....c.......
 80000bf0 938747ef 6f00c000 b7170080 9387c7ef  ..G.o...........
 80000c00 13850700 eff04ffa 9306a002 1306f0ff  ......O.........
 80000c10 93050000 1305a002 eff04fff 93070500  ..........O.....
 80000c20 63880700 b7170080 938747ef 6f00c000  c.........G.o...
 80000c30 b7170080 9387c7ef 13850700 eff0cff6  ................
 80000c40 9306a002 1306f0ff 93050000 1305a002  ................
 80000c50 eff05f83 93070500 63880700 b7170080  .._.....c.......
 80000c60 938747ef 6f00c000 b7170080 9387c7ef  ..G.o...........
 80000c70 13850700 eff04ff3 37060010 b7573412  ......O.7....W4.
 80000c80 93858767 13050001 eff09f9c 93070500  ...g............
 80000c90 63880700 b7170080 938747ef 6f00c000  c.........G.o...
 80000ca0 b7170080 9387c7ef 13850700 eff0cfef  ................
 80000cb0 3706000f b7476587 93851732 13051001  7....Ge....2....
 80000cc0 eff01f99 93070500 63880700 b7170080  ........c.......
 80000cd0 938747ef 6f00c000 b7170080 9387c7ef  ..G.o...........
 80000ce0 13850700 eff04fec b7070001 1386f7ff  ......O.........
 80000cf0 b7d7bbaa 9385d7cd 1305a001 eff05f95  .............._.
 80000d00 93070500 63880700 b7170080 938747ef  ....c.........G.
 80000d10 6f00c000 b7170080 9387c7ef 13850700  o...............
 80000d20 eff08fe8 b7c7adde 1386f7ee b7c7adde  ................
 80000d30 9385e70d 1305b001 eff09f91 93070500  ................
 80000d40 63880700 b7170080 938747ef 6f00c000  c.........G.o...
 80000d50 b7170080 9387c7ef 13850700 eff0cfe4  ................
 80000d60 1306f0ff b7170f0f 9385f7f0 b7f7f0f0  ................
 80000d70 1385070f eff09f93 93070500 63880700  ............c...
 80000d80 b7170080 938747ef 6f00c000 b7170080  ......G.o.......
 80000d90 9387c7ef 13850700 eff00fe1 13060000  ................
 80000da0 9305f0ff 13050000 eff05f96 93070500  .........._.....
 80000db0 63880700 b7170080 938747ef 6f00c000  c.........G.o...
 80000dc0 b7170080 9387c7ef 13850700 eff0cfdd  ................
 80000dd0 b7c7adde 1386f7ee b7c70000 9385f7ee  ................
 80000de0 3705adde eff09f98 93070500 63880700  7...........c...
 80000df0 b7170080 938747ef 6f00c000 b7170080  ......G.o.......
 80000e00 9387c7ef 13850700 eff00fda 13060002  ................
 80000e10 93050002 13050001 eff05f9b 93070500  .........._.....
 80000e20 63880700 b7170080 938747ef 6f00c000  c.........G.o...
 80000e30 b7170080 9387c7ef 13850700 eff0cfd6  ................
 80000e40 13060001 93050002 13050001 eff01f9e  ................
 80000e50 93070500 63880700 b7170080 938747ef  ....c.........G.
 80000e60 6f00c000 b7170080 9387c7ef 13850700  o...............
 80000e70 eff08fd3 13060002 93050002 13050001  ................
 80000e80 eff0dfa0 93070500 63880700 b7170080  ........c.......
 80000e90 938747ef 6f00c000 b7170080 9387c7ef  ..G.o...........
 80000ea0 13850700 eff04fd0 13060001 93050002  ......O.........
 80000eb0 13050001 eff09fa3 93070500 63880700  ............c...
 80000ec0 b7170080 938747ef 6f00c000 b7170080  ......G.o.......
 80000ed0 9387c7ef 13850700 eff00fcd 93070000  ................
 80000ee0 13850700 8320c101 03248101 13010102  ..... ...$......
 80000ef0 67800000 50415353 0a0d0000 4641494c  g...PASS....FAIL
 80000f00 0a0d                                 ..              
Contents of section .data:
 80000f02 0000                                 ..              
Contents of section .riscv.attributes:
 0000 414e0000 00726973 63760001 44000000  AN...riscv..D...
 0010 04100572 76333269 3270315f 6d327030  ...rv32i2p1_m2p0
 0020 5f613270 315f7a69 63737232 70305f7a  _a2p1_zicsr2p0_z
 0030 6d6d756c 3170305f 7a61616d 6f317030  mmul1p0_zaamo1p0
 0040 5f7a616c 72736331 70300008 010a0b    _zalrsc1p0..... 
Contents of section .comment:
 0000 4743433a 20286735 31313563 37653434  GCC: (g5115c7e44
 0010 29203135 2e322e30 00                 ) 15.2.0.       

Disassembly of section .text:

80000000 <vtable-0x40>:
80000000:	00000013          	.word	0x00000013
80000004:	0b80006f          	j	800000bc <reset_handler>
80000008:	00000013          	nop
8000000c:	00000013          	nop
80000010:	00000013          	nop
80000014:	00000013          	nop
80000018:	00000013          	nop
8000001c:	00000013          	nop
80000020:	00000013          	nop
80000024:	00000013          	nop
80000028:	00000013          	nop
8000002c:	00000013          	nop
80000030:	00000013          	nop
80000034:	00000013          	nop
80000038:	00000013          	nop
8000003c:	00000013          	nop

80000040 <vtable>:
80000040:	0e00006f 00000000 00000000 0a80006f     o...........o...
	...
8000005c:	0980006f 00000000 00000000 00000000     o...............
8000006c:	08c0006f 00000000 00000000 00000000     o...............
8000007c:	00000000 0740006f 00000000 00000000     ....o.@.........
8000008c:	00000000 00000013 00000013 00000013     ................
8000009c:	00000013 00000013 00000013 00000013     ................
800000ac:	00000013 00000013 00000013 00000013     ................

800000bc <reset_handler>:
800000bc:	00800293          	li	t0,8
800000c0:	3002a073          	csrs	mstatus,t0
800000c4:	000012b7          	lui	t0,0x1
800000c8:	80028293          	addi	t0,t0,-2048 # 800 <CSR_MEPC+0x4bf>
800000cc:	3042a073          	csrs	mie,t0
800000d0:	00010117          	auipc	sp,0x10
800000d4:	f3010113          	addi	sp,sp,-208 # 80010000 <_sp>
800000d8:	00000517          	auipc	a0,0x0
800000dc:	f6850513          	addi	a0,a0,-152 # 80000040 <vtable>
800000e0:	00150513          	addi	a0,a0,1
800000e4:	30551073          	csrw	mtvec,a0

800000e8 <call_main>:
800000e8:	00000513          	li	a0,0
800000ec:	00000593          	li	a1,0
800000f0:	05d000ef          	jal	8000094c <main>

800000f4 <msip_handler>:
800000f4:	0000006f          	j	800000f4 <msip_handler>

800000f8 <meip_handler>:
800000f8:	ff010113          	addi	sp,sp,-16
800000fc:	00112623          	sw	ra,12(sp)
80000100:	00f12223          	sw	a5,4(sp)
80000104:	00e12423          	sw	a4,8(sp)
80000108:	258000ef          	jal	80000360 <Buggyv32_Plic_Irq_Handler>
8000010c:	00812703          	lw	a4,8(sp)
80000110:	00412783          	lw	a5,4(sp)
80000114:	00c12083          	lw	ra,12(sp)
80000118:	01010113          	addi	sp,sp,16
8000011c:	30200073          	mret

80000120 <mexc_handler>:
80000120:	ff010113          	addi	sp,sp,-16
80000124:	00112623          	sw	ra,12(sp)
80000128:	00f12223          	sw	a5,4(sp)
8000012c:	00e12423          	sw	a4,8(sp)
80000130:	00812703          	lw	a4,8(sp)
80000134:	00412783          	lw	a5,4(sp)
80000138:	00c12083          	lw	ra,12(sp)
8000013c:	01010113          	addi	sp,sp,16
80000140:	30200073          	mret

80000144 <sexc_handler>:
80000144:	ff010113          	addi	sp,sp,-16
80000148:	00112623          	sw	ra,12(sp)
8000014c:	00f12223          	sw	a5,4(sp)
80000150:	00e12423          	sw	a4,8(sp)
80000154:	00812703          	lw	a4,8(sp)
80000158:	00412783          	lw	a5,4(sp)
8000015c:	00c12083          	lw	ra,12(sp)
80000160:	01010113          	addi	sp,sp,16
80000164:	10200073          	sret

80000168 <Buggyv32_Uart_Init>:
80000168:	fe010113          	addi	sp,sp,-32
8000016c:	00112e23          	sw	ra,28(sp)
80000170:	00812c23          	sw	s0,24(sp)
80000174:	02010413          	addi	s0,sp,32
80000178:	fea42623          	sw	a0,-20(s0)
8000017c:	900007b7          	lui	a5,0x90000
80000180:	fec42703          	lw	a4,-20(s0)
80000184:	00e7ac23          	sw	a4,24(a5) # 90000018 <_sp+0xfff0018>
80000188:	00000013          	nop
8000018c:	01c12083          	lw	ra,28(sp)
80000190:	01812403          	lw	s0,24(sp)
80000194:	02010113          	addi	sp,sp,32
80000198:	00008067          	ret

8000019c <Buggyv32_Uart_Tx>:
8000019c:	fe010113          	addi	sp,sp,-32
800001a0:	00112e23          	sw	ra,28(sp)
800001a4:	00812c23          	sw	s0,24(sp)
800001a8:	02010413          	addi	s0,sp,32
800001ac:	fea42623          	sw	a0,-20(s0)
800001b0:	00000013          	nop
800001b4:	900007b7          	lui	a5,0x90000
800001b8:	0147a783          	lw	a5,20(a5) # 90000014 <_sp+0xfff0014>
800001bc:	0017f793          	andi	a5,a5,1
800001c0:	fe078ae3          	beqz	a5,800001b4 <Buggyv32_Uart_Tx+0x18>
800001c4:	900007b7          	lui	a5,0x90000
800001c8:	fec42703          	lw	a4,-20(s0)
800001cc:	00e7a023          	sw	a4,0(a5) # 90000000 <_sp+0xfff0000>
800001d0:	00000013          	nop
800001d4:	01c12083          	lw	ra,28(sp)
800001d8:	01812403          	lw	s0,24(sp)
800001dc:	02010113          	addi	sp,sp,32
800001e0:	00008067          	ret

800001e4 <Buggyv32_Uart_Print>:
800001e4:	fd010113          	addi	sp,sp,-48
800001e8:	02112623          	sw	ra,44(sp)
800001ec:	02812423          	sw	s0,40(sp)
800001f0:	03010413          	addi	s0,sp,48
800001f4:	fca42e23          	sw	a0,-36(s0)
800001f8:	fe0407a3          	sb	zero,-17(s0)
800001fc:	0100006f          	j	8000020c <Buggyv32_Uart_Print+0x28>
80000200:	fef44783          	lbu	a5,-17(s0)
80000204:	00078513          	mv	a0,a5
80000208:	f95ff0ef          	jal	8000019c <Buggyv32_Uart_Tx>
8000020c:	fdc42783          	lw	a5,-36(s0)
80000210:	00178713          	addi	a4,a5,1
80000214:	fce42e23          	sw	a4,-36(s0)
80000218:	0007c783          	lbu	a5,0(a5)
8000021c:	fef407a3          	sb	a5,-17(s0)
80000220:	fef44783          	lbu	a5,-17(s0)
80000224:	fc079ee3          	bnez	a5,80000200 <Buggyv32_Uart_Print+0x1c>
80000228:	00000013          	nop
8000022c:	00000013          	nop
80000230:	02c12083          	lw	ra,44(sp)
80000234:	02812403          	lw	s0,40(sp)
80000238:	03010113          	addi	sp,sp,48
8000023c:	00008067          	ret

80000240 <Buggyv32_Plic_Init>:
80000240:	ff010113          	addi	sp,sp,-16
80000244:	00112623          	sw	ra,12(sp)
80000248:	00812423          	sw	s0,8(sp)
8000024c:	01010413          	addi	s0,sp,16
80000250:	00500593          	li	a1,5
80000254:	00100513          	li	a0,1
80000258:	0a0000ef          	jal	800002f8 <Buggyv32_Plic_Set_Priority>
8000025c:	00600593          	li	a1,6
80000260:	00200513          	li	a0,2
80000264:	094000ef          	jal	800002f8 <Buggyv32_Plic_Set_Priority>
80000268:	00100513          	li	a0,1
8000026c:	020000ef          	jal	8000028c <Buggyv32_Plic_Enable_IRQ>
80000270:	00200513          	li	a0,2
80000274:	018000ef          	jal	8000028c <Buggyv32_Plic_Enable_IRQ>
80000278:	00000013          	nop
8000027c:	00c12083          	lw	ra,12(sp)
80000280:	00812403          	lw	s0,8(sp)
80000284:	01010113          	addi	sp,sp,16
80000288:	00008067          	ret

8000028c <Buggyv32_Plic_Enable_IRQ>:
8000028c:	fd010113          	addi	sp,sp,-48
80000290:	02112623          	sw	ra,44(sp)
80000294:	02812423          	sw	s0,40(sp)
80000298:	03010413          	addi	s0,sp,48
8000029c:	fca42e23          	sw	a0,-36(s0)
800002a0:	900027b7          	lui	a5,0x90002
800002a4:	fef42623          	sw	a5,-20(s0)
800002a8:	fdc42783          	lw	a5,-36(s0)
800002ac:	0057d793          	srli	a5,a5,0x5
800002b0:	00279793          	slli	a5,a5,0x2
800002b4:	fec42703          	lw	a4,-20(s0)
800002b8:	00f707b3          	add	a5,a4,a5
800002bc:	fef42623          	sw	a5,-20(s0)
800002c0:	fec42783          	lw	a5,-20(s0)
800002c4:	0007a783          	lw	a5,0(a5) # 90002000 <_sp+0xfff2000>
800002c8:	fdc42703          	lw	a4,-36(s0)
800002cc:	01f77713          	andi	a4,a4,31
800002d0:	00100693          	li	a3,1
800002d4:	00e69733          	sll	a4,a3,a4
800002d8:	00e7e733          	or	a4,a5,a4
800002dc:	fec42783          	lw	a5,-20(s0)
800002e0:	00e7a023          	sw	a4,0(a5)
800002e4:	00000013          	nop
800002e8:	02c12083          	lw	ra,44(sp)
800002ec:	02812403          	lw	s0,40(sp)
800002f0:	03010113          	addi	sp,sp,48
800002f4:	00008067          	ret

800002f8 <Buggyv32_Plic_Set_Priority>:
800002f8:	fd010113          	addi	sp,sp,-48
800002fc:	02112623          	sw	ra,44(sp)
80000300:	02812423          	sw	s0,40(sp)
80000304:	03010413          	addi	s0,sp,48
80000308:	fca42e23          	sw	a0,-36(s0)
8000030c:	fcb42c23          	sw	a1,-40(s0)
80000310:	900007b7          	lui	a5,0x90000
80000314:	fef42623          	sw	a5,-20(s0)
80000318:	fd842703          	lw	a4,-40(s0)
8000031c:	00700793          	li	a5,7
80000320:	00e7f663          	bgeu	a5,a4,8000032c <Buggyv32_Plic_Set_Priority+0x34>
80000324:	00700793          	li	a5,7
80000328:	fcf42c23          	sw	a5,-40(s0)
8000032c:	fdc42783          	lw	a5,-36(s0)
80000330:	00279793          	slli	a5,a5,0x2
80000334:	fec42703          	lw	a4,-20(s0)
80000338:	00f707b3          	add	a5,a4,a5
8000033c:	fef42623          	sw	a5,-20(s0)
80000340:	fec42783          	lw	a5,-20(s0)
80000344:	fd842703          	lw	a4,-40(s0)
80000348:	00e7a023          	sw	a4,0(a5) # 90000000 <_sp+0xfff0000>
8000034c:	00000013          	nop
80000350:	02c12083          	lw	ra,44(sp)
80000354:	02812403          	lw	s0,40(sp)
80000358:	03010113          	addi	sp,sp,48
8000035c:	00008067          	ret

80000360 <Buggyv32_Plic_Irq_Handler>:
80000360:	fe010113          	addi	sp,sp,-32
80000364:	00112e23          	sw	ra,28(sp)
80000368:	00812c23          	sw	s0,24(sp)
8000036c:	02010413          	addi	s0,sp,32
80000370:	902007b7          	lui	a5,0x90200
80000374:	00478793          	addi	a5,a5,4 # 90200004 <_sp+0x101f0004>
80000378:	fef42623          	sw	a5,-20(s0)
8000037c:	fec42783          	lw	a5,-20(s0)
80000380:	0007a783          	lw	a5,0(a5)
80000384:	fef42423          	sw	a5,-24(s0)
80000388:	fec42783          	lw	a5,-20(s0)
8000038c:	fe842703          	lw	a4,-24(s0)
80000390:	00e7a023          	sw	a4,0(a5)
80000394:	00000013          	nop
80000398:	01c12083          	lw	ra,28(sp)
8000039c:	01812403          	lw	s0,24(sp)
800003a0:	02010113          	addi	sp,sp,32
800003a4:	00008067          	ret

800003a8 <uart_print>:
800003a8:	fd010113          	addi	sp,sp,-48
800003ac:	02112623          	sw	ra,44(sp)
800003b0:	02812423          	sw	s0,40(sp)
800003b4:	03010413          	addi	s0,sp,48
800003b8:	fca42e23          	sw	a0,-36(s0)
800003bc:	fe042623          	sw	zero,-20(s0)
800003c0:	0280006f          	j	800003e8 <uart_print+0x40>
800003c4:	fdc42703          	lw	a4,-36(s0)
800003c8:	fec42783          	lw	a5,-20(s0)
800003cc:	00f707b3          	add	a5,a4,a5
800003d0:	0007c783          	lbu	a5,0(a5)
800003d4:	00078513          	mv	a0,a5
800003d8:	dc5ff0ef          	jal	8000019c <Buggyv32_Uart_Tx>
800003dc:	fec42783          	lw	a5,-20(s0)
800003e0:	00178793          	addi	a5,a5,1
800003e4:	fef42623          	sw	a5,-20(s0)
800003e8:	fec42703          	lw	a4,-20(s0)
800003ec:	00500793          	li	a5,5
800003f0:	fce7fae3          	bgeu	a5,a4,800003c4 <uart_print+0x1c>
800003f4:	00000013          	nop
800003f8:	00000013          	nop
800003fc:	02c12083          	lw	ra,44(sp)
80000400:	02812403          	lw	s0,40(sp)
80000404:	03010113          	addi	sp,sp,48
80000408:	00008067          	ret

8000040c <test_div>:
8000040c:	fd010113          	addi	sp,sp,-48
80000410:	02112623          	sw	ra,44(sp)
80000414:	02812423          	sw	s0,40(sp)
80000418:	03010413          	addi	s0,sp,48
8000041c:	fca42e23          	sw	a0,-36(s0)
80000420:	fcb42c23          	sw	a1,-40(s0)
80000424:	fcc42a23          	sw	a2,-44(s0)
80000428:	fcd42823          	sw	a3,-48(s0)
8000042c:	fe042623          	sw	zero,-20(s0)
80000430:	fe042423          	sw	zero,-24(s0)
80000434:	fdc42783          	lw	a5,-36(s0)
80000438:	fd842703          	lw	a4,-40(s0)
8000043c:	02e7c733          	div	a4,a5,a4
80000440:	02e7e7b3          	rem	a5,a5,a4
80000444:	fee42623          	sw	a4,-20(s0)
80000448:	fef42423          	sw	a5,-24(s0)
8000044c:	fec42703          	lw	a4,-20(s0)
80000450:	fd442783          	lw	a5,-44(s0)
80000454:	00f71c63          	bne	a4,a5,8000046c <test_div+0x60>
80000458:	fe842703          	lw	a4,-24(s0)
8000045c:	fd042783          	lw	a5,-48(s0)
80000460:	00f71663          	bne	a4,a5,8000046c <test_div+0x60>
80000464:	00100793          	li	a5,1
80000468:	0080006f          	j	80000470 <test_div+0x64>
8000046c:	00000793          	li	a5,0
80000470:	00078513          	mv	a0,a5
80000474:	02c12083          	lw	ra,44(sp)
80000478:	02812403          	lw	s0,40(sp)
8000047c:	03010113          	addi	sp,sp,48
80000480:	00008067          	ret

80000484 <test_divu>:
80000484:	fd010113          	addi	sp,sp,-48
80000488:	02112623          	sw	ra,44(sp)
8000048c:	02812423          	sw	s0,40(sp)
80000490:	03010413          	addi	s0,sp,48
80000494:	fca42e23          	sw	a0,-36(s0)
80000498:	fcb42c23          	sw	a1,-40(s0)
8000049c:	fcc42a23          	sw	a2,-44(s0)
800004a0:	fcd42823          	sw	a3,-48(s0)
800004a4:	fe042623          	sw	zero,-20(s0)
800004a8:	fe042423          	sw	zero,-24(s0)
800004ac:	fdc42783          	lw	a5,-36(s0)
800004b0:	fd842703          	lw	a4,-40(s0)
800004b4:	02e7d733          	divu	a4,a5,a4
800004b8:	02e7f7b3          	remu	a5,a5,a4
800004bc:	fee42623          	sw	a4,-20(s0)
800004c0:	fef42423          	sw	a5,-24(s0)
800004c4:	fec42703          	lw	a4,-20(s0)
800004c8:	fd442783          	lw	a5,-44(s0)
800004cc:	00f71c63          	bne	a4,a5,800004e4 <test_divu+0x60>
800004d0:	fe842703          	lw	a4,-24(s0)
800004d4:	fd042783          	lw	a5,-48(s0)
800004d8:	00f71663          	bne	a4,a5,800004e4 <test_divu+0x60>
800004dc:	00100793          	li	a5,1
800004e0:	0080006f          	j	800004e8 <test_divu+0x64>
800004e4:	00000793          	li	a5,0
800004e8:	00078513          	mv	a0,a5
800004ec:	02c12083          	lw	ra,44(sp)
800004f0:	02812403          	lw	s0,40(sp)
800004f4:	03010113          	addi	sp,sp,48
800004f8:	00008067          	ret

800004fc <write_reg>:
800004fc:	fe010113          	addi	sp,sp,-32
80000500:	00112e23          	sw	ra,28(sp)
80000504:	00812c23          	sw	s0,24(sp)
80000508:	02010413          	addi	s0,sp,32
8000050c:	fea42623          	sw	a0,-20(s0)
80000510:	feb42423          	sw	a1,-24(s0)
80000514:	fec42703          	lw	a4,-20(s0)
80000518:	01b00793          	li	a5,27
8000051c:	06f70463          	beq	a4,a5,80000584 <write_reg+0x88>
80000520:	fec42703          	lw	a4,-20(s0)
80000524:	01b00793          	li	a5,27
80000528:	06e7c463          	blt	a5,a4,80000590 <write_reg+0x94>
8000052c:	fec42703          	lw	a4,-20(s0)
80000530:	01a00793          	li	a5,26
80000534:	04f70263          	beq	a4,a5,80000578 <write_reg+0x7c>
80000538:	fec42703          	lw	a4,-20(s0)
8000053c:	01a00793          	li	a5,26
80000540:	04e7c863          	blt	a5,a4,80000590 <write_reg+0x94>
80000544:	fec42703          	lw	a4,-20(s0)
80000548:	01000793          	li	a5,16
8000054c:	00f70a63          	beq	a4,a5,80000560 <write_reg+0x64>
80000550:	fec42703          	lw	a4,-20(s0)
80000554:	01100793          	li	a5,17
80000558:	00f70a63          	beq	a4,a5,8000056c <write_reg+0x70>
8000055c:	0340006f          	j	80000590 <write_reg+0x94>
80000560:	fe842783          	lw	a5,-24(s0)
80000564:	00078813          	mv	a6,a5
80000568:	0280006f          	j	80000590 <write_reg+0x94>
8000056c:	fe842783          	lw	a5,-24(s0)
80000570:	00078893          	mv	a7,a5
80000574:	01c0006f          	j	80000590 <write_reg+0x94>
80000578:	fe842783          	lw	a5,-24(s0)
8000057c:	00078d13          	mv	s10,a5
80000580:	0100006f          	j	80000590 <write_reg+0x94>
80000584:	fe842783          	lw	a5,-24(s0)
80000588:	00078d93          	mv	s11,a5
8000058c:	00000013          	nop
80000590:	00000013          	nop
80000594:	01c12083          	lw	ra,28(sp)
80000598:	01812403          	lw	s0,24(sp)
8000059c:	02010113          	addi	sp,sp,32
800005a0:	00008067          	ret

800005a4 <read_reg>:
800005a4:	fd010113          	addi	sp,sp,-48
800005a8:	02112623          	sw	ra,44(sp)
800005ac:	02812423          	sw	s0,40(sp)
800005b0:	03010413          	addi	s0,sp,48
800005b4:	fca42e23          	sw	a0,-36(s0)
800005b8:	fe042623          	sw	zero,-20(s0)
800005bc:	fdc42703          	lw	a4,-36(s0)
800005c0:	01b00793          	li	a5,27
800005c4:	06f70463          	beq	a4,a5,8000062c <read_reg+0x88>
800005c8:	fdc42703          	lw	a4,-36(s0)
800005cc:	01b00793          	li	a5,27
800005d0:	06e7c463          	blt	a5,a4,80000638 <read_reg+0x94>
800005d4:	fdc42703          	lw	a4,-36(s0)
800005d8:	01a00793          	li	a5,26
800005dc:	04f70263          	beq	a4,a5,80000620 <read_reg+0x7c>
800005e0:	fdc42703          	lw	a4,-36(s0)
800005e4:	01a00793          	li	a5,26
800005e8:	04e7c863          	blt	a5,a4,80000638 <read_reg+0x94>
800005ec:	fdc42703          	lw	a4,-36(s0)
800005f0:	01000793          	li	a5,16
800005f4:	00f70a63          	beq	a4,a5,80000608 <read_reg+0x64>
800005f8:	fdc42703          	lw	a4,-36(s0)
800005fc:	01100793          	li	a5,17
80000600:	00f70a63          	beq	a4,a5,80000614 <read_reg+0x70>
80000604:	0340006f          	j	80000638 <read_reg+0x94>
80000608:	00080793          	mv	a5,a6
8000060c:	fef42623          	sw	a5,-20(s0)
80000610:	0280006f          	j	80000638 <read_reg+0x94>
80000614:	00088793          	mv	a5,a7
80000618:	fef42623          	sw	a5,-20(s0)
8000061c:	01c0006f          	j	80000638 <read_reg+0x94>
80000620:	000d0793          	mv	a5,s10
80000624:	fef42623          	sw	a5,-20(s0)
80000628:	0100006f          	j	80000638 <read_reg+0x94>
8000062c:	000d8793          	mv	a5,s11
80000630:	fef42623          	sw	a5,-20(s0)
80000634:	00000013          	nop
80000638:	fec42783          	lw	a5,-20(s0)
8000063c:	00078513          	mv	a0,a5
80000640:	02c12083          	lw	ra,44(sp)
80000644:	02812403          	lw	s0,40(sp)
80000648:	03010113          	addi	sp,sp,48
8000064c:	00008067          	ret

80000650 <test_write_then_read>:
80000650:	fd010113          	addi	sp,sp,-48
80000654:	02112623          	sw	ra,44(sp)
80000658:	02812423          	sw	s0,40(sp)
8000065c:	03010413          	addi	s0,sp,48
80000660:	fca42e23          	sw	a0,-36(s0)
80000664:	fcb42c23          	sw	a1,-40(s0)
80000668:	fcc42a23          	sw	a2,-44(s0)
8000066c:	fd842583          	lw	a1,-40(s0)
80000670:	fdc42503          	lw	a0,-36(s0)
80000674:	e89ff0ef          	jal	800004fc <write_reg>
80000678:	fdc42503          	lw	a0,-36(s0)
8000067c:	f29ff0ef          	jal	800005a4 <read_reg>
80000680:	fea42623          	sw	a0,-20(s0)
80000684:	fec42703          	lw	a4,-20(s0)
80000688:	fd442783          	lw	a5,-44(s0)
8000068c:	40f707b3          	sub	a5,a4,a5
80000690:	0017b793          	seqz	a5,a5
80000694:	0ff7f793          	zext.b	a5,a5
80000698:	00078513          	mv	a0,a5
8000069c:	02c12083          	lw	ra,44(sp)
800006a0:	02812403          	lw	s0,40(sp)
800006a4:	03010113          	addi	sp,sp,48
800006a8:	00008067          	ret

800006ac <test_amoxor>:
800006ac:	fd010113          	addi	sp,sp,-48
800006b0:	02112623          	sw	ra,44(sp)
800006b4:	02812423          	sw	s0,40(sp)
800006b8:	03010413          	addi	s0,sp,48
800006bc:	fca42e23          	sw	a0,-36(s0)
800006c0:	fcb42c23          	sw	a1,-40(s0)
800006c4:	fcc42a23          	sw	a2,-44(s0)
800006c8:	fdc42783          	lw	a5,-36(s0)
800006cc:	fef42423          	sw	a5,-24(s0)
800006d0:	fe042623          	sw	zero,-20(s0)
800006d4:	fd842783          	lw	a5,-40(s0)
800006d8:	fe840713          	addi	a4,s0,-24
800006dc:	20f727af          	amoxor.w	a5,a5,(a4)
800006e0:	fef42623          	sw	a5,-20(s0)
800006e4:	fe842783          	lw	a5,-24(s0)
800006e8:	fd442703          	lw	a4,-44(s0)
800006ec:	40f707b3          	sub	a5,a4,a5
800006f0:	0017b793          	seqz	a5,a5
800006f4:	0ff7f793          	zext.b	a5,a5
800006f8:	00078513          	mv	a0,a5
800006fc:	02c12083          	lw	ra,44(sp)
80000700:	02812403          	lw	s0,40(sp)
80000704:	03010113          	addi	sp,sp,48
80000708:	00008067          	ret

8000070c <test_amoand>:
8000070c:	fd010113          	addi	sp,sp,-48
80000710:	02112623          	sw	ra,44(sp)
80000714:	02812423          	sw	s0,40(sp)
80000718:	03010413          	addi	s0,sp,48
8000071c:	fca42e23          	sw	a0,-36(s0)
80000720:	fcb42c23          	sw	a1,-40(s0)
80000724:	fcc42a23          	sw	a2,-44(s0)
80000728:	fdc42783          	lw	a5,-36(s0)
8000072c:	fef42423          	sw	a5,-24(s0)
80000730:	fe042623          	sw	zero,-20(s0)
80000734:	fd842783          	lw	a5,-40(s0)
80000738:	fe840713          	addi	a4,s0,-24
8000073c:	60f727af          	amoand.w	a5,a5,(a4)
80000740:	fef42623          	sw	a5,-20(s0)
80000744:	fe842783          	lw	a5,-24(s0)
80000748:	fd442703          	lw	a4,-44(s0)
8000074c:	40f707b3          	sub	a5,a4,a5
80000750:	0017b793          	seqz	a5,a5
80000754:	0ff7f793          	zext.b	a5,a5
80000758:	00078513          	mv	a0,a5
8000075c:	02c12083          	lw	ra,44(sp)
80000760:	02812403          	lw	s0,40(sp)
80000764:	03010113          	addi	sp,sp,48
80000768:	00008067          	ret

8000076c <test_amoor>:
8000076c:	fd010113          	addi	sp,sp,-48
80000770:	02112623          	sw	ra,44(sp)
80000774:	02812423          	sw	s0,40(sp)
80000778:	03010413          	addi	s0,sp,48
8000077c:	fca42e23          	sw	a0,-36(s0)
80000780:	fcb42c23          	sw	a1,-40(s0)
80000784:	fcc42a23          	sw	a2,-44(s0)
80000788:	fdc42783          	lw	a5,-36(s0)
8000078c:	fef42423          	sw	a5,-24(s0)
80000790:	fe042623          	sw	zero,-20(s0)
80000794:	fd842783          	lw	a5,-40(s0)
80000798:	fe840713          	addi	a4,s0,-24
8000079c:	40f727af          	amoor.w	a5,a5,(a4)
800007a0:	fef42623          	sw	a5,-20(s0)
800007a4:	fe842783          	lw	a5,-24(s0)
800007a8:	fd442703          	lw	a4,-44(s0)
800007ac:	40f707b3          	sub	a5,a4,a5
800007b0:	0017b793          	seqz	a5,a5
800007b4:	0ff7f793          	zext.b	a5,a5
800007b8:	00078513          	mv	a0,a5
800007bc:	02c12083          	lw	ra,44(sp)
800007c0:	02812403          	lw	s0,40(sp)
800007c4:	03010113          	addi	sp,sp,48
800007c8:	00008067          	ret

800007cc <test_amomax>:
800007cc:	fd010113          	addi	sp,sp,-48
800007d0:	02112623          	sw	ra,44(sp)
800007d4:	02812423          	sw	s0,40(sp)
800007d8:	03010413          	addi	s0,sp,48
800007dc:	fca42e23          	sw	a0,-36(s0)
800007e0:	fcb42c23          	sw	a1,-40(s0)
800007e4:	fcc42a23          	sw	a2,-44(s0)
800007e8:	fdc42783          	lw	a5,-36(s0)
800007ec:	fef42423          	sw	a5,-24(s0)
800007f0:	fe042623          	sw	zero,-20(s0)
800007f4:	fd842783          	lw	a5,-40(s0)
800007f8:	fe840713          	addi	a4,s0,-24
800007fc:	a0f727af          	amomax.w	a5,a5,(a4)
80000800:	fef42623          	sw	a5,-20(s0)
80000804:	fe842783          	lw	a5,-24(s0)
80000808:	fd442703          	lw	a4,-44(s0)
8000080c:	40f707b3          	sub	a5,a4,a5
80000810:	0017b793          	seqz	a5,a5
80000814:	0ff7f793          	zext.b	a5,a5
80000818:	00078513          	mv	a0,a5
8000081c:	02c12083          	lw	ra,44(sp)
80000820:	02812403          	lw	s0,40(sp)
80000824:	03010113          	addi	sp,sp,48
80000828:	00008067          	ret

8000082c <test_amomin>:
8000082c:	fd010113          	addi	sp,sp,-48
80000830:	02112623          	sw	ra,44(sp)
80000834:	02812423          	sw	s0,40(sp)
80000838:	03010413          	addi	s0,sp,48
8000083c:	fca42e23          	sw	a0,-36(s0)
80000840:	fcb42c23          	sw	a1,-40(s0)
80000844:	fcc42a23          	sw	a2,-44(s0)
80000848:	fdc42783          	lw	a5,-36(s0)
8000084c:	fef42423          	sw	a5,-24(s0)
80000850:	fe042623          	sw	zero,-20(s0)
80000854:	fd842783          	lw	a5,-40(s0)
80000858:	fe840713          	addi	a4,s0,-24
8000085c:	80f727af          	amomin.w	a5,a5,(a4)
80000860:	fef42623          	sw	a5,-20(s0)
80000864:	fe842783          	lw	a5,-24(s0)
80000868:	fd442703          	lw	a4,-44(s0)
8000086c:	40f707b3          	sub	a5,a4,a5
80000870:	0017b793          	seqz	a5,a5
80000874:	0ff7f793          	zext.b	a5,a5
80000878:	00078513          	mv	a0,a5
8000087c:	02c12083          	lw	ra,44(sp)
80000880:	02812403          	lw	s0,40(sp)
80000884:	03010113          	addi	sp,sp,48
80000888:	00008067          	ret

8000088c <test_amomaxu>:
8000088c:	fd010113          	addi	sp,sp,-48
80000890:	02112623          	sw	ra,44(sp)
80000894:	02812423          	sw	s0,40(sp)
80000898:	03010413          	addi	s0,sp,48
8000089c:	fca42e23          	sw	a0,-36(s0)
800008a0:	fcb42c23          	sw	a1,-40(s0)
800008a4:	fcc42a23          	sw	a2,-44(s0)
800008a8:	fdc42783          	lw	a5,-36(s0)
800008ac:	fef42423          	sw	a5,-24(s0)
800008b0:	fe042623          	sw	zero,-20(s0)
800008b4:	fd842783          	lw	a5,-40(s0)
800008b8:	fe840713          	addi	a4,s0,-24
800008bc:	e0f727af          	amomaxu.w	a5,a5,(a4)
800008c0:	fef42623          	sw	a5,-20(s0)
800008c4:	fe842783          	lw	a5,-24(s0)
800008c8:	fd442703          	lw	a4,-44(s0)
800008cc:	40f707b3          	sub	a5,a4,a5
800008d0:	0017b793          	seqz	a5,a5
800008d4:	0ff7f793          	zext.b	a5,a5
800008d8:	00078513          	mv	a0,a5
800008dc:	02c12083          	lw	ra,44(sp)
800008e0:	02812403          	lw	s0,40(sp)
800008e4:	03010113          	addi	sp,sp,48
800008e8:	00008067          	ret

800008ec <test_amominu>:
800008ec:	fd010113          	addi	sp,sp,-48
800008f0:	02112623          	sw	ra,44(sp)
800008f4:	02812423          	sw	s0,40(sp)
800008f8:	03010413          	addi	s0,sp,48
800008fc:	fca42e23          	sw	a0,-36(s0)
80000900:	fcb42c23          	sw	a1,-40(s0)
80000904:	fcc42a23          	sw	a2,-44(s0)
80000908:	fdc42783          	lw	a5,-36(s0)
8000090c:	fef42423          	sw	a5,-24(s0)
80000910:	fe042623          	sw	zero,-20(s0)
80000914:	fd842783          	lw	a5,-40(s0)
80000918:	fe840713          	addi	a4,s0,-24
8000091c:	c0f727af          	amominu.w	a5,a5,(a4)
80000920:	fef42623          	sw	a5,-20(s0)
80000924:	fe842783          	lw	a5,-24(s0)
80000928:	fd442703          	lw	a4,-44(s0)
8000092c:	40f707b3          	sub	a5,a4,a5
80000930:	0017b793          	seqz	a5,a5
80000934:	0ff7f793          	zext.b	a5,a5
80000938:	00078513          	mv	a0,a5
8000093c:	02c12083          	lw	ra,44(sp)
80000940:	02812403          	lw	s0,40(sp)
80000944:	03010113          	addi	sp,sp,48
80000948:	00008067          	ret

8000094c <main>:
8000094c:	fe010113          	addi	sp,sp,-32
80000950:	00112e23          	sw	ra,28(sp)
80000954:	00812c23          	sw	s0,24(sp)
80000958:	02010413          	addi	s0,sp,32
8000095c:	01000513          	li	a0,16
80000960:	809ff0ef          	jal	80000168 <Buggyv32_Uart_Init>
80000964:	fe042623          	sw	zero,-20(s0)
80000968:	07b00293          	li	t0,123
8000096c:	00028793          	mv	a5,t0
80000970:	fef42623          	sw	a5,-20(s0)
80000974:	fec42703          	lw	a4,-20(s0)
80000978:	07b00793          	li	a5,123
8000097c:	00f71863          	bne	a4,a5,8000098c <main+0x40>
80000980:	800017b7          	lui	a5,0x80001
80000984:	ef478793          	addi	a5,a5,-268 # 80000ef4 <pass_msg>
80000988:	00c0006f          	j	80000994 <main+0x48>
8000098c:	800017b7          	lui	a5,0x80001
80000990:	efc78793          	addi	a5,a5,-260 # 80000efc <fail_msg>
80000994:	00078513          	mv	a0,a5
80000998:	a11ff0ef          	jal	800003a8 <uart_print>
8000099c:	00200693          	li	a3,2
800009a0:	00800613          	li	a2,8
800009a4:	00500593          	li	a1,5
800009a8:	02a00513          	li	a0,42
800009ac:	a61ff0ef          	jal	8000040c <test_div>
800009b0:	00050793          	mv	a5,a0
800009b4:	00078863          	beqz	a5,800009c4 <main+0x78>
800009b8:	800017b7          	lui	a5,0x80001
800009bc:	ef478793          	addi	a5,a5,-268 # 80000ef4 <pass_msg>
800009c0:	00c0006f          	j	800009cc <main+0x80>
800009c4:	800017b7          	lui	a5,0x80001
800009c8:	efc78793          	addi	a5,a5,-260 # 80000efc <fail_msg>
800009cc:	00078513          	mv	a0,a5
800009d0:	9d9ff0ef          	jal	800003a8 <uart_print>
800009d4:	00700693          	li	a3,7
800009d8:	00600613          	li	a2,6
800009dc:	00800593          	li	a1,8
800009e0:	03700513          	li	a0,55
800009e4:	a29ff0ef          	jal	8000040c <test_div>
800009e8:	00050793          	mv	a5,a0
800009ec:	00078863          	beqz	a5,800009fc <main+0xb0>
800009f0:	800017b7          	lui	a5,0x80001
800009f4:	ef478793          	addi	a5,a5,-268 # 80000ef4 <pass_msg>
800009f8:	00c0006f          	j	80000a04 <main+0xb8>
800009fc:	800017b7          	lui	a5,0x80001
80000a00:	efc78793          	addi	a5,a5,-260 # 80000efc <fail_msg>
80000a04:	00078513          	mv	a0,a5
80000a08:	9a1ff0ef          	jal	800003a8 <uart_print>
80000a0c:	06300693          	li	a3,99
80000a10:	00000613          	li	a2,0
80000a14:	06400593          	li	a1,100
80000a18:	06300513          	li	a0,99
80000a1c:	9f1ff0ef          	jal	8000040c <test_div>
80000a20:	00050793          	mv	a5,a0
80000a24:	00078863          	beqz	a5,80000a34 <main+0xe8>
80000a28:	800017b7          	lui	a5,0x80001
80000a2c:	ef478793          	addi	a5,a5,-268 # 80000ef4 <pass_msg>
80000a30:	00c0006f          	j	80000a3c <main+0xf0>
80000a34:	800017b7          	lui	a5,0x80001
80000a38:	efc78793          	addi	a5,a5,-260 # 80000efc <fail_msg>
80000a3c:	00078513          	mv	a0,a5
80000a40:	969ff0ef          	jal	800003a8 <uart_print>
80000a44:	00400693          	li	a3,4
80000a48:	01100613          	li	a2,17
80000a4c:	00700593          	li	a1,7
80000a50:	07b00513          	li	a0,123
80000a54:	9b9ff0ef          	jal	8000040c <test_div>
80000a58:	00050793          	mv	a5,a0
80000a5c:	00078863          	beqz	a5,80000a6c <main+0x120>
80000a60:	800017b7          	lui	a5,0x80001
80000a64:	ef478793          	addi	a5,a5,-268 # 80000ef4 <pass_msg>
80000a68:	00c0006f          	j	80000a74 <main+0x128>
80000a6c:	800017b7          	lui	a5,0x80001
80000a70:	efc78793          	addi	a5,a5,-260 # 80000efc <fail_msg>
80000a74:	00078513          	mv	a0,a5
80000a78:	931ff0ef          	jal	800003a8 <uart_print>
80000a7c:	ffe00693          	li	a3,-2
80000a80:	ff800613          	li	a2,-8
80000a84:	00500593          	li	a1,5
80000a88:	fd600513          	li	a0,-42
80000a8c:	981ff0ef          	jal	8000040c <test_div>
80000a90:	00050793          	mv	a5,a0
80000a94:	00078863          	beqz	a5,80000aa4 <main+0x158>
80000a98:	800017b7          	lui	a5,0x80001
80000a9c:	ef478793          	addi	a5,a5,-268 # 80000ef4 <pass_msg>
80000aa0:	00c0006f          	j	80000aac <main+0x160>
80000aa4:	800017b7          	lui	a5,0x80001
80000aa8:	efc78793          	addi	a5,a5,-260 # 80000efc <fail_msg>
80000aac:	00078513          	mv	a0,a5
80000ab0:	8f9ff0ef          	jal	800003a8 <uart_print>
80000ab4:	00200693          	li	a3,2
80000ab8:	ff800613          	li	a2,-8
80000abc:	ffb00593          	li	a1,-5
80000ac0:	02a00513          	li	a0,42
80000ac4:	949ff0ef          	jal	8000040c <test_div>
80000ac8:	00050793          	mv	a5,a0
80000acc:	00078863          	beqz	a5,80000adc <main+0x190>
80000ad0:	800017b7          	lui	a5,0x80001
80000ad4:	ef478793          	addi	a5,a5,-268 # 80000ef4 <pass_msg>
80000ad8:	00c0006f          	j	80000ae4 <main+0x198>
80000adc:	800017b7          	lui	a5,0x80001
80000ae0:	efc78793          	addi	a5,a5,-260 # 80000efc <fail_msg>
80000ae4:	00078513          	mv	a0,a5
80000ae8:	8c1ff0ef          	jal	800003a8 <uart_print>
80000aec:	ffe00693          	li	a3,-2
80000af0:	00800613          	li	a2,8
80000af4:	ffb00593          	li	a1,-5
80000af8:	fd600513          	li	a0,-42
80000afc:	911ff0ef          	jal	8000040c <test_div>
80000b00:	00050793          	mv	a5,a0
80000b04:	00078863          	beqz	a5,80000b14 <main+0x1c8>
80000b08:	800017b7          	lui	a5,0x80001
80000b0c:	ef478793          	addi	a5,a5,-268 # 80000ef4 <pass_msg>
80000b10:	00c0006f          	j	80000b1c <main+0x1d0>
80000b14:	800017b7          	lui	a5,0x80001
80000b18:	efc78793          	addi	a5,a5,-260 # 80000efc <fail_msg>
80000b1c:	00078513          	mv	a0,a5
80000b20:	889ff0ef          	jal	800003a8 <uart_print>
80000b24:	00200693          	li	a3,2
80000b28:	00800613          	li	a2,8
80000b2c:	00500593          	li	a1,5
80000b30:	02a00513          	li	a0,42
80000b34:	951ff0ef          	jal	80000484 <test_divu>
80000b38:	00050793          	mv	a5,a0
80000b3c:	00078863          	beqz	a5,80000b4c <main+0x200>
80000b40:	800017b7          	lui	a5,0x80001
80000b44:	ef478793          	addi	a5,a5,-268 # 80000ef4 <pass_msg>
80000b48:	00c0006f          	j	80000b54 <main+0x208>
80000b4c:	800017b7          	lui	a5,0x80001
80000b50:	efc78793          	addi	a5,a5,-260 # 80000efc <fail_msg>
80000b54:	00078513          	mv	a0,a5
80000b58:	851ff0ef          	jal	800003a8 <uart_print>
80000b5c:	00700693          	li	a3,7
80000b60:	00600613          	li	a2,6
80000b64:	00800593          	li	a1,8
80000b68:	03700513          	li	a0,55
80000b6c:	919ff0ef          	jal	80000484 <test_divu>
80000b70:	00050793          	mv	a5,a0
80000b74:	00078863          	beqz	a5,80000b84 <main+0x238>
80000b78:	800017b7          	lui	a5,0x80001
80000b7c:	ef478793          	addi	a5,a5,-268 # 80000ef4 <pass_msg>
80000b80:	00c0006f          	j	80000b8c <main+0x240>
80000b84:	800017b7          	lui	a5,0x80001
80000b88:	efc78793          	addi	a5,a5,-260 # 80000efc <fail_msg>
80000b8c:	00078513          	mv	a0,a5
80000b90:	819ff0ef          	jal	800003a8 <uart_print>
80000b94:	06300693          	li	a3,99
80000b98:	00000613          	li	a2,0
80000b9c:	06400593          	li	a1,100
80000ba0:	06300513          	li	a0,99
80000ba4:	8e1ff0ef          	jal	80000484 <test_divu>
80000ba8:	00050793          	mv	a5,a0
80000bac:	00078863          	beqz	a5,80000bbc <main+0x270>
80000bb0:	800017b7          	lui	a5,0x80001
80000bb4:	ef478793          	addi	a5,a5,-268 # 80000ef4 <pass_msg>
80000bb8:	00c0006f          	j	80000bc4 <main+0x278>
80000bbc:	800017b7          	lui	a5,0x80001
80000bc0:	efc78793          	addi	a5,a5,-260 # 80000efc <fail_msg>
80000bc4:	00078513          	mv	a0,a5
80000bc8:	fe0ff0ef          	jal	800003a8 <uart_print>
80000bcc:	00300693          	li	a3,3
80000bd0:	333337b7          	lui	a5,0x33333
80000bd4:	33378613          	addi	a2,a5,819 # 33333333 <CSR_MEPC+0x33332ff2>
80000bd8:	00500593          	li	a1,5
80000bdc:	ffe00513          	li	a0,-2
80000be0:	8a5ff0ef          	jal	80000484 <test_divu>
80000be4:	00050793          	mv	a5,a0
80000be8:	00078863          	beqz	a5,80000bf8 <main+0x2ac>
80000bec:	800017b7          	lui	a5,0x80001
80000bf0:	ef478793          	addi	a5,a5,-268 # 80000ef4 <pass_msg>
80000bf4:	00c0006f          	j	80000c00 <main+0x2b4>
80000bf8:	800017b7          	lui	a5,0x80001
80000bfc:	efc78793          	addi	a5,a5,-260 # 80000efc <fail_msg>
80000c00:	00078513          	mv	a0,a5
80000c04:	fa4ff0ef          	jal	800003a8 <uart_print>
80000c08:	02a00693          	li	a3,42
80000c0c:	fff00613          	li	a2,-1
80000c10:	00000593          	li	a1,0
80000c14:	02a00513          	li	a0,42
80000c18:	ff4ff0ef          	jal	8000040c <test_div>
80000c1c:	00050793          	mv	a5,a0
80000c20:	00078863          	beqz	a5,80000c30 <main+0x2e4>
80000c24:	800017b7          	lui	a5,0x80001
80000c28:	ef478793          	addi	a5,a5,-268 # 80000ef4 <pass_msg>
80000c2c:	00c0006f          	j	80000c38 <main+0x2ec>
80000c30:	800017b7          	lui	a5,0x80001
80000c34:	efc78793          	addi	a5,a5,-260 # 80000efc <fail_msg>
80000c38:	00078513          	mv	a0,a5
80000c3c:	f6cff0ef          	jal	800003a8 <uart_print>
80000c40:	02a00693          	li	a3,42
80000c44:	fff00613          	li	a2,-1
80000c48:	00000593          	li	a1,0
80000c4c:	02a00513          	li	a0,42
80000c50:	835ff0ef          	jal	80000484 <test_divu>
80000c54:	00050793          	mv	a5,a0
80000c58:	00078863          	beqz	a5,80000c68 <main+0x31c>
80000c5c:	800017b7          	lui	a5,0x80001
80000c60:	ef478793          	addi	a5,a5,-268 # 80000ef4 <pass_msg>
80000c64:	00c0006f          	j	80000c70 <main+0x324>
80000c68:	800017b7          	lui	a5,0x80001
80000c6c:	efc78793          	addi	a5,a5,-260 # 80000efc <fail_msg>
80000c70:	00078513          	mv	a0,a5
80000c74:	f34ff0ef          	jal	800003a8 <uart_print>
80000c78:	10000637          	lui	a2,0x10000
80000c7c:	123457b7          	lui	a5,0x12345
80000c80:	67878593          	addi	a1,a5,1656 # 12345678 <CSR_MEPC+0x12345337>
80000c84:	01000513          	li	a0,16
80000c88:	9c9ff0ef          	jal	80000650 <test_write_then_read>
80000c8c:	00050793          	mv	a5,a0
80000c90:	00078863          	beqz	a5,80000ca0 <main+0x354>
80000c94:	800017b7          	lui	a5,0x80001
80000c98:	ef478793          	addi	a5,a5,-268 # 80000ef4 <pass_msg>
80000c9c:	00c0006f          	j	80000ca8 <main+0x35c>
80000ca0:	800017b7          	lui	a5,0x80001
80000ca4:	efc78793          	addi	a5,a5,-260 # 80000efc <fail_msg>
80000ca8:	00078513          	mv	a0,a5
80000cac:	efcff0ef          	jal	800003a8 <uart_print>
80000cb0:	0f000637          	lui	a2,0xf000
80000cb4:	876547b7          	lui	a5,0x87654
80000cb8:	32178593          	addi	a1,a5,801 # 87654321 <_sp+0x7644321>
80000cbc:	01100513          	li	a0,17
80000cc0:	991ff0ef          	jal	80000650 <test_write_then_read>
80000cc4:	00050793          	mv	a5,a0
80000cc8:	00078863          	beqz	a5,80000cd8 <main+0x38c>
80000ccc:	800017b7          	lui	a5,0x80001
80000cd0:	ef478793          	addi	a5,a5,-268 # 80000ef4 <pass_msg>
80000cd4:	00c0006f          	j	80000ce0 <main+0x394>
80000cd8:	800017b7          	lui	a5,0x80001
80000cdc:	efc78793          	addi	a5,a5,-260 # 80000efc <fail_msg>
80000ce0:	00078513          	mv	a0,a5
80000ce4:	ec4ff0ef          	jal	800003a8 <uart_print>
80000ce8:	010007b7          	lui	a5,0x1000
80000cec:	fff78613          	addi	a2,a5,-1 # ffffff <CSR_MEPC+0xfffcbe>
80000cf0:	aabbd7b7          	lui	a5,0xaabbd
80000cf4:	cdd78593          	addi	a1,a5,-803 # aabbccdd <_sp+0x2abaccdd>
80000cf8:	01a00513          	li	a0,26
80000cfc:	955ff0ef          	jal	80000650 <test_write_then_read>
80000d00:	00050793          	mv	a5,a0
80000d04:	00078863          	beqz	a5,80000d14 <main+0x3c8>
80000d08:	800017b7          	lui	a5,0x80001
80000d0c:	ef478793          	addi	a5,a5,-268 # 80000ef4 <pass_msg>
80000d10:	00c0006f          	j	80000d1c <main+0x3d0>
80000d14:	800017b7          	lui	a5,0x80001
80000d18:	efc78793          	addi	a5,a5,-260 # 80000efc <fail_msg>
80000d1c:	00078513          	mv	a0,a5
80000d20:	e88ff0ef          	jal	800003a8 <uart_print>
80000d24:	deadc7b7          	lui	a5,0xdeadc
80000d28:	eef78613          	addi	a2,a5,-273 # deadbeef <_sp+0x5eacbeef>
80000d2c:	deadc7b7          	lui	a5,0xdeadc
80000d30:	0de78593          	addi	a1,a5,222 # deadc0de <_sp+0x5eacc0de>
80000d34:	01b00513          	li	a0,27
80000d38:	919ff0ef          	jal	80000650 <test_write_then_read>
80000d3c:	00050793          	mv	a5,a0
80000d40:	00078863          	beqz	a5,80000d50 <main+0x404>
80000d44:	800017b7          	lui	a5,0x80001
80000d48:	ef478793          	addi	a5,a5,-268 # 80000ef4 <pass_msg>
80000d4c:	00c0006f          	j	80000d58 <main+0x40c>
80000d50:	800017b7          	lui	a5,0x80001
80000d54:	efc78793          	addi	a5,a5,-260 # 80000efc <fail_msg>
80000d58:	00078513          	mv	a0,a5
80000d5c:	e4cff0ef          	jal	800003a8 <uart_print>
80000d60:	fff00613          	li	a2,-1
80000d64:	0f0f17b7          	lui	a5,0xf0f1
80000d68:	f0f78593          	addi	a1,a5,-241 # f0f0f0f <CSR_MEPC+0xf0f0bce>
80000d6c:	f0f0f7b7          	lui	a5,0xf0f0f
80000d70:	0f078513          	addi	a0,a5,240 # f0f0f0f0 <_sp+0x70eff0f0>
80000d74:	939ff0ef          	jal	800006ac <test_amoxor>
80000d78:	00050793          	mv	a5,a0
80000d7c:	00078863          	beqz	a5,80000d8c <main+0x440>
80000d80:	800017b7          	lui	a5,0x80001
80000d84:	ef478793          	addi	a5,a5,-268 # 80000ef4 <pass_msg>
80000d88:	00c0006f          	j	80000d94 <main+0x448>
80000d8c:	800017b7          	lui	a5,0x80001
80000d90:	efc78793          	addi	a5,a5,-260 # 80000efc <fail_msg>
80000d94:	00078513          	mv	a0,a5
80000d98:	e10ff0ef          	jal	800003a8 <uart_print>
80000d9c:	00000613          	li	a2,0
80000da0:	fff00593          	li	a1,-1
80000da4:	00000513          	li	a0,0
80000da8:	965ff0ef          	jal	8000070c <test_amoand>
80000dac:	00050793          	mv	a5,a0
80000db0:	00078863          	beqz	a5,80000dc0 <main+0x474>
80000db4:	800017b7          	lui	a5,0x80001
80000db8:	ef478793          	addi	a5,a5,-268 # 80000ef4 <pass_msg>
80000dbc:	00c0006f          	j	80000dc8 <main+0x47c>
80000dc0:	800017b7          	lui	a5,0x80001
80000dc4:	efc78793          	addi	a5,a5,-260 # 80000efc <fail_msg>
80000dc8:	00078513          	mv	a0,a5
80000dcc:	ddcff0ef          	jal	800003a8 <uart_print>
80000dd0:	deadc7b7          	lui	a5,0xdeadc
80000dd4:	eef78613          	addi	a2,a5,-273 # deadbeef <_sp+0x5eacbeef>
80000dd8:	0000c7b7          	lui	a5,0xc
80000ddc:	eef78593          	addi	a1,a5,-273 # beef <CSR_MEPC+0xbbae>
80000de0:	dead0537          	lui	a0,0xdead0
80000de4:	989ff0ef          	jal	8000076c <test_amoor>
80000de8:	00050793          	mv	a5,a0
80000dec:	00078863          	beqz	a5,80000dfc <main+0x4b0>
80000df0:	800017b7          	lui	a5,0x80001
80000df4:	ef478793          	addi	a5,a5,-268 # 80000ef4 <pass_msg>
80000df8:	00c0006f          	j	80000e04 <main+0x4b8>
80000dfc:	800017b7          	lui	a5,0x80001
80000e00:	efc78793          	addi	a5,a5,-260 # 80000efc <fail_msg>
80000e04:	00078513          	mv	a0,a5
80000e08:	da0ff0ef          	jal	800003a8 <uart_print>
80000e0c:	02000613          	li	a2,32
80000e10:	02000593          	li	a1,32
80000e14:	01000513          	li	a0,16
80000e18:	9b5ff0ef          	jal	800007cc <test_amomax>
80000e1c:	00050793          	mv	a5,a0
80000e20:	00078863          	beqz	a5,80000e30 <main+0x4e4>
80000e24:	800017b7          	lui	a5,0x80001
80000e28:	ef478793          	addi	a5,a5,-268 # 80000ef4 <pass_msg>
80000e2c:	00c0006f          	j	80000e38 <main+0x4ec>
80000e30:	800017b7          	lui	a5,0x80001
80000e34:	efc78793          	addi	a5,a5,-260 # 80000efc <fail_msg>
80000e38:	00078513          	mv	a0,a5
80000e3c:	d6cff0ef          	jal	800003a8 <uart_print>
80000e40:	01000613          	li	a2,16
80000e44:	02000593          	li	a1,32
80000e48:	01000513          	li	a0,16
80000e4c:	9e1ff0ef          	jal	8000082c <test_amomin>
80000e50:	00050793          	mv	a5,a0
80000e54:	00078863          	beqz	a5,80000e64 <main+0x518>
80000e58:	800017b7          	lui	a5,0x80001
80000e5c:	ef478793          	addi	a5,a5,-268 # 80000ef4 <pass_msg>
80000e60:	00c0006f          	j	80000e6c <main+0x520>
80000e64:	800017b7          	lui	a5,0x80001
80000e68:	efc78793          	addi	a5,a5,-260 # 80000efc <fail_msg>
80000e6c:	00078513          	mv	a0,a5
80000e70:	d38ff0ef          	jal	800003a8 <uart_print>
80000e74:	02000613          	li	a2,32
80000e78:	02000593          	li	a1,32
80000e7c:	01000513          	li	a0,16
80000e80:	a0dff0ef          	jal	8000088c <test_amomaxu>
80000e84:	00050793          	mv	a5,a0
80000e88:	00078863          	beqz	a5,80000e98 <main+0x54c>
80000e8c:	800017b7          	lui	a5,0x80001
80000e90:	ef478793          	addi	a5,a5,-268 # 80000ef4 <pass_msg>
80000e94:	00c0006f          	j	80000ea0 <main+0x554>
80000e98:	800017b7          	lui	a5,0x80001
80000e9c:	efc78793          	addi	a5,a5,-260 # 80000efc <fail_msg>
80000ea0:	00078513          	mv	a0,a5
80000ea4:	d04ff0ef          	jal	800003a8 <uart_print>
80000ea8:	01000613          	li	a2,16
80000eac:	02000593          	li	a1,32
80000eb0:	01000513          	li	a0,16
80000eb4:	a39ff0ef          	jal	800008ec <test_amominu>
80000eb8:	00050793          	mv	a5,a0
80000ebc:	00078863          	beqz	a5,80000ecc <main+0x580>
80000ec0:	800017b7          	lui	a5,0x80001
80000ec4:	ef478793          	addi	a5,a5,-268 # 80000ef4 <pass_msg>
80000ec8:	00c0006f          	j	80000ed4 <main+0x588>
80000ecc:	800017b7          	lui	a5,0x80001
80000ed0:	efc78793          	addi	a5,a5,-260 # 80000efc <fail_msg>
80000ed4:	00078513          	mv	a0,a5
80000ed8:	cd0ff0ef          	jal	800003a8 <uart_print>
80000edc:	00000793          	li	a5,0
80000ee0:	00078513          	mv	a0,a5
80000ee4:	01c12083          	lw	ra,28(sp)
80000ee8:	01812403          	lw	s0,24(sp)
80000eec:	02010113          	addi	sp,sp,32
80000ef0:	00008067          	ret

80000ef4 <pass_msg>:
80000ef4:	53534150 00000d0a                       PASS....

80000efc <fail_msg>:
80000efc:	4c494146                                 FAIL..
